; Function Attrs: mustprogress nounwind uwtable
define internal void @_ZN12_GLOBAL__N_117CodeGeneratorImpl21HandleTranslationUnitERN5clang10ASTContextE(ptr nocapture noundef nonnull align 8 dereferenceable(176) %0, ptr nocapture nonnull readnone align 8 %1) unnamed_addr #4 align 2 {
  %3 = getelementptr inbounds nuw i8, ptr %0, i64 16
  %4 = load ptr, ptr %3, align 8
  %5 = getelementptr inbounds nuw i8, ptr %4, i64 194
  %6 = load i8, ptr %5, align 2
  %7 = trunc i8 %6 to i1
  %8 = getelementptr inbounds nuw i8, ptr %4, i64 195
  %9 = load i8, ptr %8, align 1
  %10 = trunc i8 %9 to i1
  %11 = select i1 %7, i1 true, i1 %10
  br i1 %11, label %16, label %12

12:                                               ; preds = %2
  %13 = getelementptr inbounds nuw i8, ptr %0, i64 88
  %14 = load ptr, ptr %13, align 8
  %.not = icmp eq ptr %14, null
  br i1 %.not, label %16, label %15

15:                                               ; preds = %12
  tail call void @_ZN5clang7CodeGen13CodeGenModule7ReleaseEv(ptr noundef nonnull align 8 dereferenceable(3600) %14) #12
  %.pre = load ptr, ptr %3, align 8
  br label %16

16:                                               ; preds = %15, %12, %2
  %17 = phi ptr [ %.pre, %15 ], [ %4, %12 ], [ %4, %2 ]
  %18 = getelementptr inbounds nuw i8, ptr %17, i64 192
  %19 = load i8, ptr %18, align 8
  %20 = trunc i8 %19 to i1
  br i1 %20, label %21, label %_ZNSt10unique_ptrIN4llvm6ModuleESt14default_deleteIS1_EE5resetEPS1_.exit

21:                                               ; preds = %16
  %22 = getelementptr inbounds nuw i8, ptr %0, i64 88
  %23 = load ptr, ptr %22, align 8
  %.not1 = icmp eq ptr %23, null
  br i1 %.not1, label %25, label %24

24:                                               ; preds = %21
  tail call void @_ZN5clang7CodeGen13CodeGenModule5clearEv(ptr noundef nonnull align 8 dereferenceable(3600) %23) #12
  br label %25

25:                                               ; preds = %24, %21
  %26 = getelementptr inbounds nuw i8, ptr %0, i64 80
  %27 = load ptr, ptr %26, align 8
  store ptr null, ptr %26, align 8
  %.not.i.i = icmp eq ptr %27, null
  br i1 %.not.i.i, label %_ZNSt10unique_ptrIN4llvm6ModuleESt14default_deleteIS1_EE5resetEPS1_.exit, label %_ZNKSt14default_deleteIN4llvm6ModuleEEclEPS1_.exit.i.i

_ZNKSt14default_deleteIN4llvm6ModuleEEclEPS1_.exit.i.i: ; preds = %25
  tail call void @_ZN4llvm6ModuleD1Ev(ptr noundef nonnull align 8 dereferenceable(857) %27) #12
  tail call void @_ZdlPvm(ptr noundef nonnull %27, i64 noundef 864) #14
  br label %_ZNSt10unique_ptrIN4llvm6ModuleESt14default_deleteIS1_EE5resetEPS1_.exit

_ZNSt10unique_ptrIN4llvm6ModuleESt14default_deleteIS1_EE5resetEPS1_.exit: ; preds = %_ZNKSt14default_deleteIN4llvm6ModuleEEclEPS1_.exit.i.i, %25, %16
  ret void
}